target datalayout = "e-m:e-p270:32:32-p271:32:32-p272:64:64-i64:64-i128:128-f80:128-n8:16:32:64-S128"
target triple = "x86_64-pc-linux-gnu"

%"struct.std::atomic.29" = type { %"struct.std::__atomic_base.30" }
%"struct.std::__atomic_base.30" = type { i8 }
%"struct.google::protobuf::internal::DescriptorTable" = type { i8, i8, i32, ptr, ptr, ptr, ptr, i32, i32, ptr, ptr, ptr, ptr, ptr, ptr }

@_ZN6google8protobuf8internal28init_protobuf_defaults_stateE = external global %"struct.std::atomic.29", align 1

; Function Attrs: noinline noreturn nounwind uwtable
define linkonce_odr hidden void @__clang_call_terminate(ptr noundef %0) #13 comdat {
  %2 = call ptr @__cxa_begin_catch(ptr %0) #3
  call void @_ZSt9terminatev() #21
  unreachable
}

; Function Attrs: mustprogress nounwind uwtable
define linkonce_odr noundef i32 @_ZStanSt12memory_orderSt23__memory_order_modifier(i32 noundef %0, i32 noundef %1) #10 comdat {
  %3 = alloca i32, align 4
  %4 = alloca i32, align 4
  store i32 %0, ptr %3, align 4, !tbaa !250
  store i32 %1, ptr %4, align 4, !tbaa !324
  %5 = load i32, ptr %3, align 4, !tbaa !250
  %6 = load i32, ptr %4, align 4, !tbaa !324
  %7 = and i32 %5, %6
  ret i32 %7
}

; Function Attrs: alwaysinline mustprogress nounwind uwtable
define linkonce_odr hidden noundef zeroext i1 @_ZNKSt13__atomic_baseIbE4loadESt12memory_order(ptr noundef nonnull align 1 dereferenceable(1) %0, i32 noundef %1) #11 comdat align 2 personality ptr @__gxx_personality_v0 {
  %3 = alloca ptr, align 8
  %4 = alloca i32, align 4
  %5 = alloca i32, align 4
  %6 = alloca i8, align 1
  store ptr %0, ptr %3, align 8, !tbaa !322
  store i32 %1, ptr %4, align 4, !tbaa !250
  %7 = load ptr, ptr %3, align 8
  call void @llvm.lifetime.start.p0(i64 4, ptr %5) #3
  %8 = load i32, ptr %4, align 4, !tbaa !250
  %9 = invoke noundef i32 @_ZStanSt12memory_orderSt23__memory_order_modifier(i32 noundef %8, i32 noundef 65535)
          to label %10 unwind label %28

10:                                               ; preds = %2
  store i32 %9, ptr %5, align 4, !tbaa !250
  br label %11

11:                                               ; preds = %10
  br label %12

12:                                               ; preds = %11
  br label %13

13:                                               ; preds = %12
  br label %14

14:                                               ; preds = %13
  br label %15

15:                                               ; preds = %14
  br label %16

16:                                               ; preds = %15
  %17 = getelementptr inbounds nuw %"struct.std::__atomic_base.30", ptr %7, i32 0, i32 0
  %18 = load i32, ptr %4, align 4, !tbaa !250
  switch i32 %18, label %19 [
    i32 1, label %21
    i32 2, label %21
    i32 5, label %23
  ]

19:                                               ; preds = %16
  %20 = load atomic i8, ptr %17 monotonic, align 1
  store i8 %20, ptr %6, align 1
  br label %25

21:                                               ; preds = %16, %16
  %22 = load atomic i8, ptr %17 acquire, align 1
  store i8 %22, ptr %6, align 1
  br label %25

23:                                               ; preds = %16
  %24 = load atomic i8, ptr %17 seq_cst, align 1
  store i8 %24, ptr %6, align 1
  br label %25

25:                                               ; preds = %23, %21, %19
  %26 = load i8, ptr %6, align 1, !tbaa !141, !range !142, !noundef !143
  %27 = trunc i8 %26 to i1
  call void @llvm.lifetime.end.p0(i64 4, ptr %5) #3
  ret i1 %27

28:                                               ; preds = %2
  %29 = landingpad { ptr, i32 }
          catch ptr null
  %30 = extractvalue { ptr, i32 } %29, 0
  call void @__clang_call_terminate(ptr %30) #21
  unreachable
}

; Function Attrs: mustprogress nounwind uwtable
define linkonce_odr hidden noundef zeroext i1 @_ZNKSt6atomicIbE4loadESt12memory_order(ptr noundef nonnull align 1 dereferenceable(1) %0, i32 noundef %1) #10 comdat align 2 {
  %3 = alloca ptr, align 8
  %4 = alloca i32, align 4
  store ptr %0, ptr %3, align 8, !tbaa !320
  store i32 %1, ptr %4, align 4, !tbaa !250
  %5 = load ptr, ptr %3, align 8
  %6 = getelementptr inbounds nuw %"struct.std::atomic.29", ptr %5, i32 0, i32 0
  %7 = load i32, ptr %4, align 4, !tbaa !250
  %8 = call noundef zeroext i1 @_ZNKSt13__atomic_baseIbE4loadESt12memory_order(ptr noundef nonnull align 1 dereferenceable(1) %6, i32 noundef %7) #3
  ret i1 %8
}

; Function Attrs: inlinehint mustprogress uwtable
define linkonce_odr hidden void @_ZN6google8protobuf8internal20InitProtobufDefaultsEv() #7 comdat {
  %1 = call noundef zeroext i1 @_ZNKSt6atomicIbE4loadESt12memory_order(ptr noundef nonnull align 1 dereferenceable(1) @_ZN6google8protobuf8internal28init_protobuf_defaults_stateE, i32 noundef 2) #3
  %2 = xor i1 %1, true
  %3 = zext i1 %2 to i64
  %4 = call i64 @llvm.expect.i64(i64 %3, i64 0)
  %5 = icmp ne i64 %4, 0
  br i1 %5, label %6, label %7

6:                                                ; preds = %0
  call void @_ZN6google8protobuf8internal24InitProtobufDefaultsSlowEv()
  br label %7

7:                                                ; preds = %6, %0
  ret void
}

; Function Attrs: mustprogress uwtable
define internal void @_ZN6google8protobuf12_GLOBAL__N_118AddDescriptorsImplEPKNS0_8internal15DescriptorTableE(ptr noundef %0) #4 {
  %2 = alloca ptr, align 8
  %3 = alloca i32, align 4
  %4 = alloca i32, align 4
  store ptr %0, ptr %2, align 8, !tbaa !286
  call void @_ZN6google8protobuf8internal20InitProtobufDefaultsEv()
  call void @llvm.lifetime.start.p0(i64 4, ptr %3) #3
  %5 = load ptr, ptr %2, align 8, !tbaa !286
  %6 = getelementptr inbounds nuw %"struct.google::protobuf::internal::DescriptorTable", ptr %5, i32 0, i32 7
  %7 = load i32, ptr %6, align 8, !tbaa !296
  store i32 %7, ptr %3, align 4, !tbaa !14
  call void @llvm.lifetime.start.p0(i64 4, ptr %4) #3
  store i32 0, ptr %4, align 4, !tbaa !14
  br label %8

8:                                                ; preds = %31, %1
  %9 = load i32, ptr %4, align 4, !tbaa !14
  %10 = load i32, ptr %3, align 4, !tbaa !14
  %11 = icmp slt i32 %9, %10
  br i1 %11, label %13, label %12

12:                                               ; preds = %8
  call void @llvm.lifetime.end.p0(i64 4, ptr %4) #3
  br label %34

13:                                               ; preds = %8
  %14 = load ptr, ptr %2, align 8, !tbaa !286
  %15 = getelementptr inbounds nuw %"struct.google::protobuf::internal::DescriptorTable", ptr %14, i32 0, i32 6
  %16 = load ptr, ptr %15, align 8, !tbaa !297
  %17 = load i32, ptr %4, align 4, !tbaa !14
  %18 = sext i32 %17 to i64
  %19 = getelementptr inbounds ptr, ptr %16, i64 %18
  %20 = load ptr, ptr %19, align 8, !tbaa !286
  %21 = icmp ne ptr %20, null
  br i1 %21, label %22, label %30

22:                                               ; preds = %13
  %23 = load ptr, ptr %2, align 8, !tbaa !286
  %24 = getelementptr inbounds nuw %"struct.google::protobuf::internal::DescriptorTable", ptr %23, i32 0, i32 6
  %25 = load ptr, ptr %24, align 8, !tbaa !297
  %26 = load i32, ptr %4, align 4, !tbaa !14
  %27 = sext i32 %26 to i64
  %28 = getelementptr inbounds ptr, ptr %25, i64 %27
  %29 = load ptr, ptr %28, align 8, !tbaa !286
  call void @_ZN6google8protobuf12_GLOBAL__N_114AddDescriptorsEPKNS0_8internal15DescriptorTableE(ptr noundef %29)
  br label %30

30:                                               ; preds = %22, %13
  br label %31

31:                                               ; preds = %30
  %32 = load i32, ptr %4, align 4, !tbaa !14
  %33 = add nsw i32 %32, 1
  store i32 %33, ptr %4, align 4, !tbaa !14
  br label %8, !llvm.loop !474

34:                                               ; preds = %12
  %35 = load ptr, ptr %2, align 8, !tbaa !286
  %36 = getelementptr inbounds nuw %"struct.google::protobuf::internal::DescriptorTable", ptr %35, i32 0, i32 3
  %37 = load ptr, ptr %36, align 8, !tbaa !475
  %38 = load ptr, ptr %2, align 8, !tbaa !286
  %39 = getelementptr inbounds nuw %"struct.google::protobuf::internal::DescriptorTable", ptr %38, i32 0, i32 2
  %40 = load i32, ptr %39, align 4, !tbaa !476
  call void @_ZN6google8protobuf14DescriptorPool24InternalAddGeneratedFileEPKvi(ptr noundef %37, i32 noundef %40)
  %41 = load ptr, ptr %2, align 8, !tbaa !286
  call void @_ZN6google8protobuf14MessageFactory29InternalRegisterGeneratedFileEPKNS0_8internal15DescriptorTableE(ptr noundef %41)
  call void @llvm.lifetime.end.p0(i64 4, ptr %3) #3
  ret void
}

; Function Attrs: mustprogress uwtable
define internal void @_ZN6google8protobuf12_GLOBAL__N_114AddDescriptorsEPKNS0_8internal15DescriptorTableE(ptr noundef %0) #4 {
  %2 = alloca ptr, align 8
  store ptr %0, ptr %2, align 8, !tbaa !286
  %3 = load ptr, ptr %2, align 8, !tbaa !286
  %4 = getelementptr inbounds nuw %"struct.google::protobuf::internal::DescriptorTable", ptr %3, i32 0, i32 0
  %5 = load i8, ptr %4, align 8, !tbaa !312, !range !142, !noundef !143
  %6 = trunc i8 %5 to i1
  br i1 %6, label %7, label %8

7:                                                ; preds = %1
  br label %12

8:                                                ; preds = %1
  %9 = load ptr, ptr %2, align 8, !tbaa !286
  %10 = getelementptr inbounds nuw %"struct.google::protobuf::internal::DescriptorTable", ptr %9, i32 0, i32 0
  store i8 1, ptr %10, align 8, !tbaa !312
  %11 = load ptr, ptr %2, align 8, !tbaa !286
  call void @_ZN6google8protobuf12_GLOBAL__N_118AddDescriptorsImplEPKNS0_8internal15DescriptorTableE(ptr noundef %11)
  br label %12

12:                                               ; preds = %8, %7
  ret void
}