; Function Attrs: mustprogress uwtable
define internal fastcc void @_ZN6google8protobuf12_GLOBAL__N_114AddDescriptorsEPKNS0_8internal15DescriptorTableE(ptr noundef %0) unnamed_addr #3 personality ptr @__gxx_personality_v0 {
  %2 = load i8, ptr %0, align 8, !tbaa !303, !range !68, !noundef !69
  %3 = trunc nuw i8 %2 to i1
  br i1 %3, label %22, label %4

4:                                                ; preds = %1
  store i8 1, ptr %0, align 8, !tbaa !303
  %5 = load atomic i8, ptr @_ZN6google8protobuf8internal28init_protobuf_defaults_stateE acquire, align 1
  %6 = trunc i8 %5 to i1
  br i1 %6, label %_ZN6google8protobuf8internal20InitProtobufDefaultsEv.exit, label %7, !prof !16

7:                                                ; preds = %4
  tail call void @_ZN6google8protobuf8internal24InitProtobufDefaultsSlowEv()
  br label %_ZN6google8protobuf8internal20InitProtobufDefaultsEv.exit

_ZN6google8protobuf8internal20InitProtobufDefaultsEv.exit: ; preds = %4, %7
  %8 = getelementptr inbounds nuw i8, ptr %0, i64 40
  %9 = load i32, ptr %8, align 8, !tbaa !258
  %10 = icmp sgt i32 %9, 0
  br i1 %10, label %.lr.ph, label %_ZN6google8protobuf12_GLOBAL__N_118AddDescriptorsImplEPKNS0_8internal15DescriptorTableE.exit

.lr.ph:                                           ; preds = %_ZN6google8protobuf8internal20InitProtobufDefaultsEv.exit
  %11 = getelementptr inbounds nuw i8, ptr %0, i64 32
  %wide.trip.count = zext nneg i32 %9 to i64
  br label %12

12:                                               ; preds = %.lr.ph, %17
  %indvars.iv = phi i64 [ 0, %.lr.ph ], [ %indvars.iv.next, %17 ]
  %13 = load ptr, ptr %11, align 8, !tbaa !259
  %14 = getelementptr inbounds nuw ptr, ptr %13, i64 %indvars.iv
  %15 = load ptr, ptr %14, align 8, !tbaa !244
  %.not.i = icmp eq ptr %15, null
  br i1 %.not.i, label %17, label %16

16:                                               ; preds = %12
  tail call fastcc void @_ZN6google8protobuf12_GLOBAL__N_114AddDescriptorsEPKNS0_8internal15DescriptorTableE(ptr noundef nonnull %15)
  br label %17

17:                                               ; preds = %16, %12
  %indvars.iv.next = add nuw nsw i64 %indvars.iv, 1
  %exitcond.not = icmp eq i64 %indvars.iv.next, %wide.trip.count
  br i1 %exitcond.not, label %_ZN6google8protobuf12_GLOBAL__N_118AddDescriptorsImplEPKNS0_8internal15DescriptorTableE.exit, label %12, !llvm.loop !304

_ZN6google8protobuf12_GLOBAL__N_118AddDescriptorsImplEPKNS0_8internal15DescriptorTableE.exit: ; preds = %17, %_ZN6google8protobuf8internal20InitProtobufDefaultsEv.exit
  %18 = getelementptr inbounds nuw i8, ptr %0, i64 8
  %19 = load ptr, ptr %18, align 8, !tbaa !305
  %20 = getelementptr inbounds nuw i8, ptr %0, i64 4
  %21 = load i32, ptr %20, align 4, !tbaa !306
  tail call void @_ZN6google8protobuf14DescriptorPool24InternalAddGeneratedFileEPKvi(ptr noundef %19, i32 noundef %21)
  tail call void @_ZN6google8protobuf14MessageFactory29InternalRegisterGeneratedFileEPKNS0_8internal15DescriptorTableE(ptr noundef nonnull %0)
  br label %22

22:                                               ; preds = %1, %_ZN6google8protobuf12_GLOBAL__N_118AddDescriptorsImplEPKNS0_8internal15DescriptorTableE.exit
  ret void
}